target datalayout = "e-m:e-p270:32:32-p271:32:32-p272:64:64-i64:64-i128:128-f80:128-n8:16:32:64-S128"
target triple = "x86_64-pc-linux-gnu"

%struct.H5FL_blk_head_t = type { i8, i32, i32, i64, ptr, ptr }
%struct.H5FL_seq_head_t = type { %struct.H5FL_blk_head_t, i64 }
%struct.H5A_attr_table_t = type { i64, i64, ptr }
%struct.H5A_attr_iter_op_t = type { i32, %union.anon.1 }
%union.anon.1 = type { ptr }
%struct.H5O_ainfo_t = type { i8, i8, i32, i64, i64, i64, i64 }

@.str.3 = private unnamed_addr constant [100 x i8] c"generated/home/dtcxzyw/WorkSpace/Projects/compilers/llvm-opt-benchmark/bench/hdf5/hdf5/src/H5Aint.c\00", align 1
@H5E_ATTR_g = external global i64, align 8
@H5E_CANTINIT_g = external global i64, align 8
@H5E_CANTALLOC_g = external global i64, align 8
@H5E_CANTGET_g = external global i64, align 8
@H5E_CANTOPENOBJ_g = external global i64, align 8
@.str.36 = private unnamed_addr constant [25 x i8] c"memory allocation failed\00", align 1
@H5E_CLOSEERROR_g = external global i64, align 8
@.str.58 = private unnamed_addr constant [31 x i8] c"error building attribute table\00", align 1
@H5E_CANTSORT_g = external global i64, align 8
@.str.59 = private unnamed_addr constant [30 x i8] c"error sorting attribute table\00", align 1
@__func__.H5A__dense_build_table = private unnamed_addr constant [23 x i8] c"H5A__dense_build_table\00", align 1
@.str.61 = private unnamed_addr constant [40 x i8] c"unable to open v2 B-tree for name index\00", align 1
@.str.62 = private unnamed_addr constant [37 x i8] c"can't retrieve # of records in index\00", align 1
@H5_H5A_t_ptr_seq_free_list = internal global %struct.H5FL_seq_head_t { %struct.H5FL_blk_head_t { i8 0, i32 0, i32 0, i64 0, ptr @.str.99, ptr null }, i64 8 }, align 8
@.str.63 = private unnamed_addr constant [37 x i8] c"can't close v2 B-tree for name index\00", align 1

; Function Attrs: nounwind uwtable
define internal i32 @H5A__attr_sort_table(ptr noundef %0, i32 noundef %1, i32 noundef %2) #0 {
  %4 = alloca ptr, align 8
  %5 = alloca i32, align 4
  %6 = alloca i32, align 4
  store ptr %0, ptr %4, align 8
  store i32 %1, ptr %5, align 4
  store i32 %2, ptr %6, align 4
  %7 = load i32, ptr %5, align 4
  %8 = icmp eq i32 %7, 0
  br i1 %8, label %9, label %32

9:                                                ; preds = %3
  %10 = load i32, ptr %6, align 4
  %11 = icmp eq i32 %10, 0
  br i1 %11, label %12, label %19

12:                                               ; preds = %9
  %13 = load ptr, ptr %4, align 8
  %14 = getelementptr inbounds %struct.H5A_attr_table_t, ptr %13, i32 0, i32 2
  %15 = load ptr, ptr %14, align 8
  %16 = load ptr, ptr %4, align 8
  %17 = getelementptr inbounds %struct.H5A_attr_table_t, ptr %16, i32 0, i32 0
  %18 = load i64, ptr %17, align 8
  call void @qsort(ptr noundef %15, i64 noundef %18, i64 noundef 8, ptr noundef @H5A__attr_cmp_name_inc)
  br label %31

19:                                               ; preds = %9
  %20 = load i32, ptr %6, align 4
  %21 = icmp eq i32 %20, 1
  br i1 %21, label %22, label %29

22:                                               ; preds = %19
  %23 = load ptr, ptr %4, align 8
  %24 = getelementptr inbounds %struct.H5A_attr_table_t, ptr %23, i32 0, i32 2
  %25 = load ptr, ptr %24, align 8
  %26 = load ptr, ptr %4, align 8
  %27 = getelementptr inbounds %struct.H5A_attr_table_t, ptr %26, i32 0, i32 0
  %28 = load i64, ptr %27, align 8
  call void @qsort(ptr noundef %25, i64 noundef %28, i64 noundef 8, ptr noundef @H5A__attr_cmp_name_dec)
  br label %30

29:                                               ; preds = %19
  br label %30

30:                                               ; preds = %29, %22
  br label %31

31:                                               ; preds = %30, %12
  br label %55

32:                                               ; preds = %3
  %33 = load i32, ptr %6, align 4
  %34 = icmp eq i32 %33, 0
  br i1 %34, label %35, label %42

35:                                               ; preds = %32
  %36 = load ptr, ptr %4, align 8
  %37 = getelementptr inbounds %struct.H5A_attr_table_t, ptr %36, i32 0, i32 2
  %38 = load ptr, ptr %37, align 8
  %39 = load ptr, ptr %4, align 8
  %40 = getelementptr inbounds %struct.H5A_attr_table_t, ptr %39, i32 0, i32 0
  %41 = load i64, ptr %40, align 8
  call void @qsort(ptr noundef %38, i64 noundef %41, i64 noundef 8, ptr noundef @H5A__attr_cmp_corder_inc)
  br label %54

42:                                               ; preds = %32
  %43 = load i32, ptr %6, align 4
  %44 = icmp eq i32 %43, 1
  br i1 %44, label %45, label %52

45:                                               ; preds = %42
  %46 = load ptr, ptr %4, align 8
  %47 = getelementptr inbounds %struct.H5A_attr_table_t, ptr %46, i32 0, i32 2
  %48 = load ptr, ptr %47, align 8
  %49 = load ptr, ptr %4, align 8
  %50 = getelementptr inbounds %struct.H5A_attr_table_t, ptr %49, i32 0, i32 0
  %51 = load i64, ptr %50, align 8
  call void @qsort(ptr noundef %48, i64 noundef %51, i64 noundef 8, ptr noundef @H5A__attr_cmp_corder_dec)
  br label %53

52:                                               ; preds = %42
  br label %53

53:                                               ; preds = %52, %45
  br label %54

54:                                               ; preds = %53, %35
  br label %55

55:                                               ; preds = %54, %31
  ret i32 0
}

; Function Attrs: nounwind uwtable
define i32 @H5A__dense_build_table(ptr noundef %0, ptr noundef %1, i32 noundef %2, i32 noundef %3, ptr noundef %4) #0 {
  %6 = alloca ptr, align 8
  %7 = alloca ptr, align 8
  %8 = alloca i32, align 4
  %9 = alloca i32, align 4
  %10 = alloca ptr, align 8
  %11 = alloca ptr, align 8
  %12 = alloca i64, align 8
  %13 = alloca i32, align 4
  %14 = alloca i8, align 1
  %15 = alloca %struct.H5A_attr_iter_op_t, align 8
  store ptr %0, ptr %6, align 8
  store ptr %1, ptr %7, align 8
  store i32 %2, ptr %8, align 4
  store i32 %3, ptr %9, align 4
  store ptr %4, ptr %10, align 8
  store ptr null, ptr %11, align 8
  store i32 0, ptr %13, align 4
  store i8 0, ptr %14, align 1
  %16 = load ptr, ptr %6, align 8
  %17 = load ptr, ptr %7, align 8
  %18 = getelementptr inbounds %struct.H5O_ainfo_t, ptr %17, i32 0, i32 6
  %19 = load i64, ptr %18, align 8
  %20 = call ptr @H5B2_open(ptr noundef %16, i64 noundef %19, ptr noundef null)
  store ptr %20, ptr %11, align 8
  %21 = icmp eq ptr null, %20
  br i1 %21, label %22, label %37

22:                                               ; preds = %5
  br label %23

23:                                               ; preds = %22
  br label %24

24:                                               ; preds = %23
  br label %25

25:                                               ; preds = %24
  %26 = load i64, ptr @H5E_ATTR_g, align 8
  %27 = load i64, ptr @H5E_CANTOPENOBJ_g, align 8
  %28 = call i32 (ptr, ptr, i32, i64, i64, ptr, ...) @H5E_printf_stack(ptr noundef @.str.3, ptr noundef @__func__.H5A__dense_build_table, i32 noundef 1616, i64 noundef %26, i64 noundef %27, ptr noundef @.str.61)
  br label %29

29:                                               ; preds = %25
  store i8 1, ptr %14, align 1
  %30 = load i8, ptr %14, align 1
  %31 = trunc i8 %30 to i1
  %32 = zext i1 %31 to i8
  store i8 %32, ptr %14, align 1
  br label %33

33:                                               ; preds = %29
  br label %34

34:                                               ; preds = %33
  store i32 -1, ptr %13, align 4
  br label %134

35:                                               ; No predecessors!
  br label %36

36:                                               ; preds = %35
  br label %37

37:                                               ; preds = %36, %5
  %38 = load ptr, ptr %11, align 8
  %39 = call i32 @H5B2_get_nrec(ptr noundef %38, ptr noundef %12)
  %40 = icmp slt i32 %39, 0
  br i1 %40, label %41, label %56

41:                                               ; preds = %37
  br label %42

42:                                               ; preds = %41
  br label %43

43:                                               ; preds = %42
  br label %44

44:                                               ; preds = %43
  %45 = load i64, ptr @H5E_ATTR_g, align 8
  %46 = load i64, ptr @H5E_CANTGET_g, align 8
  %47 = call i32 (ptr, ptr, i32, i64, i64, ptr, ...) @H5E_printf_stack(ptr noundef @.str.3, ptr noundef @__func__.H5A__dense_build_table, i32 noundef 1621, i64 noundef %45, i64 noundef %46, ptr noundef @.str.62)
  br label %48

48:                                               ; preds = %44
  store i8 1, ptr %14, align 1
  %49 = load i8, ptr %14, align 1
  %50 = trunc i8 %49 to i1
  %51 = zext i1 %50 to i8
  store i8 %51, ptr %14, align 1
  br label %52

52:                                               ; preds = %48
  br label %53

53:                                               ; preds = %52
  store i32 -1, ptr %13, align 4
  br label %134

54:                                               ; No predecessors!
  br label %55

55:                                               ; preds = %54
  br label %56

56:                                               ; preds = %55, %37
  %57 = load i64, ptr %12, align 8
  %58 = icmp ugt i64 %57, 0
  br i1 %58, label %59, label %130

59:                                               ; preds = %56
  %60 = load i64, ptr %12, align 8
  %61 = call noalias ptr @H5FL_seq_calloc(ptr noundef @H5_H5A_t_ptr_seq_free_list, i64 noundef %60)
  %62 = load ptr, ptr %10, align 8
  %63 = getelementptr inbounds %struct.H5A_attr_table_t, ptr %62, i32 0, i32 2
  store ptr %61, ptr %63, align 8
  %64 = icmp eq ptr null, %61
  br i1 %64, label %65, label %80

65:                                               ; preds = %59
  br label %66

66:                                               ; preds = %65
  br label %67

67:                                               ; preds = %66
  br label %68

68:                                               ; preds = %67
  %69 = load i64, ptr @H5E_ATTR_g, align 8
  %70 = load i64, ptr @H5E_CANTALLOC_g, align 8
  %71 = call i32 (ptr, ptr, i32, i64, i64, ptr, ...) @H5E_printf_stack(ptr noundef @.str.3, ptr noundef @__func__.H5A__dense_build_table, i32 noundef 1632, i64 noundef %69, i64 noundef %70, ptr noundef @.str.36)
  br label %72

72:                                               ; preds = %68
  store i8 1, ptr %14, align 1
  %73 = load i8, ptr %14, align 1
  %74 = trunc i8 %73 to i1
  %75 = zext i1 %74 to i8
  store i8 %75, ptr %14, align 1
  br label %76

76:                                               ; preds = %72
  br label %77

77:                                               ; preds = %76
  store i32 -1, ptr %13, align 4
  br label %134

78:                                               ; No predecessors!
  br label %79

79:                                               ; preds = %78
  br label %80

80:                                               ; preds = %79, %59
  %81 = load ptr, ptr %10, align 8
  %82 = getelementptr inbounds %struct.H5A_attr_table_t, ptr %81, i32 0, i32 0
  store i64 0, ptr %82, align 8
  %83 = load i64, ptr %12, align 8
  %84 = load ptr, ptr %10, align 8
  %85 = getelementptr inbounds %struct.H5A_attr_table_t, ptr %84, i32 0, i32 1
  store i64 %83, ptr %85, align 8
  %86 = getelementptr inbounds %struct.H5A_attr_iter_op_t, ptr %15, i32 0, i32 0
  store i32 2, ptr %86, align 8
  %87 = getelementptr inbounds %struct.H5A_attr_iter_op_t, ptr %15, i32 0, i32 1
  store ptr @H5A__dense_build_table_cb, ptr %87, align 8
  %88 = load ptr, ptr %6, align 8
  %89 = load ptr, ptr %7, align 8
  %90 = load ptr, ptr %10, align 8
  %91 = call i32 @H5A__dense_iterate(ptr noundef %88, i64 noundef 0, ptr noundef %89, i32 noundef 0, i32 noundef 2, i64 noundef 0, ptr noundef null, ptr noundef %15, ptr noundef %90)
  %92 = icmp slt i32 %91, 0
  br i1 %92, label %93, label %108

93:                                               ; preds = %80
  br label %94

94:                                               ; preds = %93
  br label %95

95:                                               ; preds = %94
  br label %96

96:                                               ; preds = %95
  %97 = load i64, ptr @H5E_ATTR_g, align 8
  %98 = load i64, ptr @H5E_CANTINIT_g, align 8
  %99 = call i32 (ptr, ptr, i32, i64, i64, ptr, ...) @H5E_printf_stack(ptr noundef @.str.3, ptr noundef @__func__.H5A__dense_build_table, i32 noundef 1643, i64 noundef %97, i64 noundef %98, ptr noundef @.str.58)
  br label %100

100:                                              ; preds = %96
  store i8 1, ptr %14, align 1
  %101 = load i8, ptr %14, align 1
  %102 = trunc i8 %101 to i1
  %103 = zext i1 %102 to i8
  store i8 %103, ptr %14, align 1
  br label %104

104:                                              ; preds = %100
  br label %105

105:                                              ; preds = %104
  store i32 -1, ptr %13, align 4
  br label %134

106:                                              ; No predecessors!
  br label %107

107:                                              ; preds = %106
  br label %108

108:                                              ; preds = %107, %80
  %109 = load ptr, ptr %10, align 8
  %110 = load i32, ptr %8, align 4
  %111 = load i32, ptr %9, align 4
  %112 = call i32 @H5A__attr_sort_table(ptr noundef %109, i32 noundef %110, i32 noundef %111)
  %113 = icmp slt i32 %112, 0
  br i1 %113, label %114, label %129

114:                                              ; preds = %108
  br label %115

115:                                              ; preds = %114
  br label %116

116:                                              ; preds = %115
  br label %117

117:                                              ; preds = %116
  %118 = load i64, ptr @H5E_ATTR_g, align 8
  %119 = load i64, ptr @H5E_CANTSORT_g, align 8
  %120 = call i32 (ptr, ptr, i32, i64, i64, ptr, ...) @H5E_printf_stack(ptr noundef @.str.3, ptr noundef @__func__.H5A__dense_build_table, i32 noundef 1647, i64 noundef %118, i64 noundef %119, ptr noundef @.str.59)
  br label %121

121:                                              ; preds = %117
  store i8 1, ptr %14, align 1
  %122 = load i8, ptr %14, align 1
  %123 = trunc i8 %122 to i1
  %124 = zext i1 %123 to i8
  store i8 %124, ptr %14, align 1
  br label %125

125:                                              ; preds = %121
  br label %126

126:                                              ; preds = %125
  store i32 -1, ptr %13, align 4
  br label %134

127:                                              ; No predecessors!
  br label %128

128:                                              ; preds = %127
  br label %129

129:                                              ; preds = %128, %108
  br label %133

130:                                              ; preds = %56
  %131 = load ptr, ptr %10, align 8
  %132 = getelementptr inbounds %struct.H5A_attr_table_t, ptr %131, i32 0, i32 2
  store ptr null, ptr %132, align 8
  br label %133

133:                                              ; preds = %130, %129
  br label %134

134:                                              ; preds = %133, %126, %105, %77, %53, %34
  %135 = load ptr, ptr %11, align 8
  %136 = icmp ne ptr %135, null
  br i1 %136, label %137, label %154

137:                                              ; preds = %134
  %138 = load ptr, ptr %11, align 8
  %139 = call i32 @H5B2_close(ptr noundef %138)
  %140 = icmp slt i32 %139, 0
  br i1 %140, label %141, label %154

141:                                              ; preds = %137
  br label %142

142:                                              ; preds = %141
  br label %143

143:                                              ; preds = %142
  br label %144

144:                                              ; preds = %143
  %145 = load i64, ptr @H5E_ATTR_g, align 8
  %146 = load i64, ptr @H5E_CLOSEERROR_g, align 8
  %147 = call i32 (ptr, ptr, i32, i64, i64, ptr, ...) @H5E_printf_stack(ptr noundef @.str.3, ptr noundef @__func__.H5A__dense_build_table, i32 noundef 1655, i64 noundef %145, i64 noundef %146, ptr noundef @.str.63)
  br label %148

148:                                              ; preds = %144
  store i8 1, ptr %14, align 1
  %149 = load i8, ptr %14, align 1
  %150 = trunc i8 %149 to i1
  %151 = zext i1 %150 to i8
  store i8 %151, ptr %14, align 1
  br label %152

152:                                              ; preds = %148
  store i32 -1, ptr %13, align 4
  br label %153

153:                                              ; preds = %152
  br label %154

154:                                              ; preds = %153, %137, %134
  %155 = load i32, ptr %13, align 4
  ret i32 %155
}