; Function Attrs: nounwind uwtable
define range(i32 -1, 1) i32 @H5A__dense_build_table(ptr noundef %0, ptr noundef %1, i32 noundef %2, i32 noundef %3, ptr noundef %4) local_unnamed_addr #0 {
  %6 = alloca i64, align 8
  %7 = alloca %struct.H5A_attr_iter_op_t, align 8
  %8 = getelementptr inbounds i8, ptr %1, i64 32
  %9 = load i64, ptr %8, align 8
  %10 = tail call ptr @H5B2_open(ptr noundef %0, i64 noundef %9, ptr noundef null) #13
  %11 = icmp eq ptr %10, null
  br i1 %11, label %H5A__attr_sort_table.exit, label %12

12:                                               ; preds = %5
  %13 = call i32 @H5B2_get_nrec(ptr noundef nonnull %10, ptr noundef nonnull %6) #13
  %14 = icmp slt i32 %13, 0
  br i1 %14, label %15, label %19

15:                                               ; preds = %12
  %16 = load i64, ptr @H5E_ATTR_g, align 8
  %17 = load i64, ptr @H5E_CANTGET_g, align 8
  %18 = call i32 (ptr, ptr, i32, i64, i64, ptr, ...) @H5E_printf_stack(ptr noundef nonnull @.str.3, ptr noundef nonnull @__func__.H5A__dense_build_table, i32 noundef 1621, i64 noundef %16, i64 noundef %17, ptr noundef nonnull @.str.62) #13
  br label %52

19:                                               ; preds = %12
  %20 = load i64, ptr %6, align 8
  %.not = icmp eq i64 %20, 0
  br i1 %.not, label %47, label %21

21:                                               ; preds = %19
  %22 = call noalias ptr @H5FL_seq_calloc(ptr noundef nonnull @H5_H5A_t_ptr_seq_free_list, i64 noundef %20) #13
  %23 = getelementptr inbounds i8, ptr %4, i64 16
  store ptr %22, ptr %23, align 8
  %24 = icmp eq ptr %22, null
  br i1 %24, label %25, label %29

25:                                               ; preds = %21
  %26 = load i64, ptr @H5E_ATTR_g, align 8
  %27 = load i64, ptr @H5E_CANTALLOC_g, align 8
  %28 = call i32 (ptr, ptr, i32, i64, i64, ptr, ...) @H5E_printf_stack(ptr noundef nonnull @.str.3, ptr noundef nonnull @__func__.H5A__dense_build_table, i32 noundef 1632, i64 noundef %26, i64 noundef %27, ptr noundef nonnull @.str.36) #13
  br label %52

29:                                               ; preds = %21
  store i64 0, ptr %4, align 8
  %30 = load i64, ptr %6, align 8
  %31 = getelementptr inbounds i8, ptr %4, i64 8
  store i64 %30, ptr %31, align 8
  store i32 2, ptr %7, align 8
  %32 = getelementptr inbounds i8, ptr %7, i64 8
  store ptr @H5A__dense_build_table_cb, ptr %32, align 8
  %33 = call i32 @H5A__dense_iterate(ptr noundef %0, i64 noundef 0, ptr noundef nonnull %1, i32 noundef 0, i32 noundef 2, i64 noundef 0, ptr noundef null, ptr noundef nonnull %7, ptr noundef nonnull %4) #13
  %34 = icmp slt i32 %33, 0
  br i1 %34, label %35, label %39

35:                                               ; preds = %29
  %36 = load i64, ptr @H5E_ATTR_g, align 8
  %37 = load i64, ptr @H5E_CANTINIT_g, align 8
  %38 = call i32 (ptr, ptr, i32, i64, i64, ptr, ...) @H5E_printf_stack(ptr noundef nonnull @.str.3, ptr noundef nonnull @__func__.H5A__dense_build_table, i32 noundef 1643, i64 noundef %36, i64 noundef %37, ptr noundef nonnull @.str.58) #13
  br label %52

39:                                               ; preds = %29
  %40 = icmp eq i32 %2, 0
  br i1 %40, label %41, label %43

41:                                               ; preds = %39
  switch i32 %3, label %52 [
    i32 0, label %.sink.split.i
    i32 1, label %42
  ]

42:                                               ; preds = %41
  br label %.sink.split.i

43:                                               ; preds = %39
  switch i32 %3, label %52 [
    i32 0, label %.sink.split.i
    i32 1, label %44
  ]

44:                                               ; preds = %43
  br label %.sink.split.i

.sink.split.i:                                    ; preds = %44, %43, %42, %41
  %H5A__attr_cmp_corder_inc.sink.i = phi ptr [ @H5A__attr_cmp_corder_dec, %44 ], [ @H5A__attr_cmp_name_dec, %42 ], [ @H5A__attr_cmp_name_inc, %41 ], [ @H5A__attr_cmp_corder_inc, %43 ]
  %45 = load ptr, ptr %23, align 8
  %46 = load i64, ptr %4, align 8
  call void @qsort(ptr noundef %45, i64 noundef %46, i64 noundef 8, ptr noundef nonnull %H5A__attr_cmp_corder_inc.sink.i) #13
  br label %52

47:                                               ; preds = %19
  %48 = getelementptr inbounds i8, ptr %4, i64 16
  store ptr null, ptr %48, align 8
  br label %52

H5A__attr_sort_table.exit:                        ; preds = %5
  %49 = load i64, ptr @H5E_ATTR_g, align 8
  %50 = load i64, ptr @H5E_CANTOPENOBJ_g, align 8
  %51 = tail call i32 (ptr, ptr, i32, i64, i64, ptr, ...) @H5E_printf_stack(ptr noundef nonnull @.str.3, ptr noundef nonnull @__func__.H5A__dense_build_table, i32 noundef 1616, i64 noundef %49, i64 noundef %50, ptr noundef nonnull @.str.61) #13
  br label %59

52:                                               ; preds = %.sink.split.i, %43, %41, %47, %35, %25, %15
  %.0.ph = phi i32 [ 0, %.sink.split.i ], [ 0, %43 ], [ 0, %41 ], [ 0, %47 ], [ -1, %35 ], [ -1, %25 ], [ -1, %15 ]
  %53 = call i32 @H5B2_close(ptr noundef nonnull %10) #13
  %54 = icmp slt i32 %53, 0
  br i1 %54, label %55, label %59

55:                                               ; preds = %52
  %56 = load i64, ptr @H5E_ATTR_g, align 8
  %57 = load i64, ptr @H5E_CLOSEERROR_g, align 8
  %58 = call i32 (ptr, ptr, i32, i64, i64, ptr, ...) @H5E_printf_stack(ptr noundef nonnull @.str.3, ptr noundef nonnull @__func__.H5A__dense_build_table, i32 noundef 1655, i64 noundef %56, i64 noundef %57, ptr noundef nonnull @.str.63) #13
  br label %59

59:                                               ; preds = %H5A__attr_sort_table.exit, %55, %52
  %.1 = phi i32 [ -1, %55 ], [ %.0.ph, %52 ], [ -1, %H5A__attr_sort_table.exit ]
  ret i32 %.1
}